
if_then:     file format elf32-i386

Contents of section .interp:
 8048134 2f6c6962 2f6c642d 6c696e75 782e736f  /lib/ld-linux.so
 8048144 2e3200                               .2.             
Contents of section .note.ABI-tag:
 8048148 04000000 10000000 01000000 474e5500  ............GNU.
 8048158 00000000 02000000 06000000 20000000  ............ ...
Contents of section .note.gnu.build-id:
 8048168 04000000 14000000 03000000 474e5500  ............GNU.
 8048178 161e273d 0832c130 0de265be e5b7c82b  ..'=.2.0..e....+
 8048188 3781ec0c                             7...            
Contents of section .gnu.hash:
 804818c 02000000 04000000 01000000 05000000  ................
 804819c 00200020 00000000 04000000 ad4be3c0  . . .........K..
Contents of section .dynsym:
 80481ac 00000000 00000000 00000000 00000000  ................
 80481bc 1a000000 00000000 00000000 12000000  ................
 80481cc 31000000 00000000 00000000 20000000  1........... ...
 80481dc 1f000000 00000000 00000000 12000000  ................
 80481ec 0b000000 bc840408 04000000 11000f00  ................
Contents of section .dynstr:
 80481fc 006c6962 632e736f 2e36005f 494f5f73  .libc.so.6._IO_s
 804820c 7464696e 5f757365 64007075 7473005f  tdin_used.puts._
 804821c 5f6c6962 635f7374 6172745f 6d61696e  _libc_start_main
 804822c 005f5f67 6d6f6e5f 73746172 745f5f00  .__gmon_start__.
 804823c 474c4942 435f322e 3000               GLIBC_2.0.      
Contents of section .gnu.version:
 8048246 00000200 00000200 0100               ..........      
Contents of section .gnu.version_r:
 8048250 01000100 01000000 10000000 00000000  ................
 8048260 1069690d 00000200 40000000 00000000  .ii.....@.......
Contents of section .rel.dyn:
 8048270 b4960408 06020000                    ........        
Contents of section .rel.plt:
 8048278 c4960408 07010000 c8960408 07020000  ................
 8048288 cc960408 07030000                    ........        
Contents of section .init:
 8048290 5383ec08 e8970000 0081c31f 1400008b  S...............
 80482a0 83fcffff ff85c074 05e83200 000083c4  .......t..2.....
 80482b0 085bc3                               .[.             
Contents of section .plt:
 80482c0 ff35bc96 0408ff25 c0960408 00000000  .5.....%........
 80482d0 ff25c496 04086800 000000e9 e0ffffff  .%....h.........
 80482e0 ff25c896 04086808 000000e9 d0ffffff  .%....h.........
 80482f0 ff25cc96 04086810 000000e9 c0ffffff  .%....h.........
Contents of section .text:
 8048300 31ed5e89 e183e4f0 50545268 a0840408  1.^.....PTRh....
 8048310 68408404 08515668 fb830408 e8cfffff  h@...QVh........
 8048320 fff46690 66906690 66906690 66906690  ..f.f.f.f.f.f.f.
 8048330 8b1c24c3 66906690 66906690 66906690  ..$.f.f.f.f.f.f.
 8048340 b8db9604 082dd896 040883f8 06761ab8  .....-.......v..
 8048350 00000000 85c07411 5589e583 ec1468d8  ......t.U.....h.
 8048360 960408ff d083c410 c9f3c390 8d742600  .............t&.
 8048370 b8d89604 082dd896 0408c1f8 0289c2c1  .....-..........
 8048380 ea1f01d0 d1f8741b ba000000 0085d274  ......t........t
 8048390 125589e5 83ec1050 68d89604 08ffd283  .U.....Ph.......
 80483a0 c410c9f3 c38d7426 008dbc27 00000000  ......t&...'....
 80483b0 803dd896 04080075 135589e5 83ec08e8  .=.....u.U......
 80483c0 7cffffff c605d896 040801c9 f3c36690  |.............f.
 80483d0 b8c89504 088b1085 d27505eb 938d7600  .........u....v.
 80483e0 ba000000 0085d274 f25589e5 83ec1450  .......t.U.....P
 80483f0 ffd283c4 10c9e975 ffffff8d 4c240483  .......u....L$..
 8048400 e4f0ff71 fc5589e5 5183ec14 c745f40a  ...q.U..Q....E..
 8048410 00000083 7df40a75 1083ec0c 68c08404  ....}..u....h...
 8048420 08e8aafe ffff83c4 10b80000 00008b4d  ...............M
 8048430 fcc98d61 fcc36690 66906690 66906690  ...a..f.f.f.f.f.
 8048440 55575653 e8e7feff ff81c36f 12000083  UWVS.......o....
 8048450 ec0c8b6c 24208db3 0cffffff e82ffeff  ...l$ ......./..
 8048460 ff8d8308 ffffff29 c6c1fe02 85f67425  .......)......t%
 8048470 31ff8db6 00000000 83ec04ff 74242cff  1...........t$,.
 8048480 74242c55 ff94bb08 ffffff83 c70183c4  t$,U............
 8048490 1039f775 e383c40c 5b5e5f5d c38d7600  .9.u....[^_]..v.
 80484a0 f3c3                                 ..              
Contents of section .fini:
 80484a4 5383ec08 e883feff ff81c30b 12000083  S...............
 80484b4 c4085bc3                             ..[.            
Contents of section .rodata:
 80484b8 03000000 01000200 78203d20 74656e00  ........x = ten.
Contents of section .eh_frame_hdr:
 80484c8 011b033b 28000000 04000000 f8fdffff  ...;(...........
 80484d8 44000000 33ffffff 68000000 78ffffff  D...3...h...x...
 80484e8 94000000 d8ffffff e0000000           ............    
Contents of section .eh_frame:
 80484f4 14000000 00000000 017a5200 017c0801  .........zR..|..
 8048504 1b0c0404 88010000 20000000 1c000000  ........ .......
 8048514 acfdffff 40000000 000e0846 0e0c4a0f  ....@......F..J.
 8048524 0b740478 003f1a3b 2a322422 28000000  .t.x.?.;*2$"(...
 8048534 40000000 c3feffff 3b000000 00440c01  @.......;....D..
 8048544 00471005 02750043 0f03757c 06680c01  .G...u.C..u|.h..
 8048554 0041c543 0c040400 48000000 6c000000  .A.C....H...l...
 8048564 dcfeffff 5d000000 00410e08 8502410e  ....]....A....A.
 8048574 0c870341 0e108604 410e1483 054e0e20  ...A....A....N. 
 8048584 690e2444 0e28440e 2c410e30 4d0e2047  i.$D.(D.,A.0M. G
 8048594 0e1441c3 0e1041c6 0e0c41c7 0e0841c5  ..A...A...A...A.
 80485a4 0e040000 10000000 b8000000 f0feffff  ................
 80485b4 02000000 00000000 00000000           ............    
Contents of section .init_array:
 80495c0 d0830408                             ....            
Contents of section .fini_array:
 80495c4 b0830408                             ....            
Contents of section .jcr:
 80495c8 00000000                             ....            
Contents of section .dynamic:
 80495cc 01000000 01000000 0c000000 90820408  ................
 80495dc 0d000000 a4840408 19000000 c0950408  ................
 80495ec 1b000000 04000000 1a000000 c4950408  ................
 80495fc 1c000000 04000000 f5feff6f 8c810408  ...........o....
 804960c 05000000 fc810408 06000000 ac810408  ................
 804961c 0a000000 4a000000 0b000000 10000000  ....J...........
 804962c 15000000 00000000 03000000 b8960408  ................
 804963c 02000000 18000000 14000000 11000000  ................
 804964c 17000000 78820408 11000000 70820408  ....x.......p...
 804965c 12000000 08000000 13000000 08000000  ................
 804966c feffff6f 50820408 ffffff6f 01000000  ...oP......o....
 804967c f0ffff6f 46820408 00000000 00000000  ...oF...........
 804968c 00000000 00000000 00000000 00000000  ................
 804969c 00000000 00000000 00000000 00000000  ................
 80496ac 00000000 00000000                    ........        
Contents of section .got:
 80496b4 00000000                             ....            
Contents of section .got.plt:
 80496b8 cc950408 00000000 00000000 d6820408  ................
 80496c8 e6820408 f6820408                    ........        
Contents of section .data:
 80496d0 00000000 00000000                    ........        
Contents of section .comment:
 0000 4743433a 2028474e 55292035 2e332e30  GCC: (GNU) 5.3.0
 0010 00                                   .               

Disassembly of section .init:

08048290 <_init>:
 8048290:	53                   	push   ebx
 8048291:	83 ec 08             	sub    esp,0x8
 8048294:	e8 97 00 00 00       	call   8048330 <__x86.get_pc_thunk.bx>
 8048299:	81 c3 1f 14 00 00    	add    ebx,0x141f
 804829f:	8b 83 fc ff ff ff    	mov    eax,DWORD PTR [ebx-0x4]
 80482a5:	85 c0                	test   eax,eax
 80482a7:	74 05                	je     80482ae <_init+0x1e>
 80482a9:	e8 32 00 00 00       	call   80482e0 <__gmon_start__@plt>
 80482ae:	83 c4 08             	add    esp,0x8
 80482b1:	5b                   	pop    ebx
 80482b2:	c3                   	ret    

Disassembly of section .plt:

080482c0 <.plt>:
 80482c0:	ff 35 bc 96 04 08    	push   DWORD PTR ds:0x80496bc
 80482c6:	ff 25 c0 96 04 08    	jmp    DWORD PTR ds:0x80496c0
 80482cc:	00 00                	add    BYTE PTR [eax],al
	...

080482d0 <puts@plt>:
 80482d0:	ff 25 c4 96 04 08    	jmp    DWORD PTR ds:0x80496c4
 80482d6:	68 00 00 00 00       	push   0x0
 80482db:	e9 e0 ff ff ff       	jmp    80482c0 <.plt>

080482e0 <__gmon_start__@plt>:
 80482e0:	ff 25 c8 96 04 08    	jmp    DWORD PTR ds:0x80496c8
 80482e6:	68 08 00 00 00       	push   0x8
 80482eb:	e9 d0 ff ff ff       	jmp    80482c0 <.plt>

080482f0 <__libc_start_main@plt>:
 80482f0:	ff 25 cc 96 04 08    	jmp    DWORD PTR ds:0x80496cc
 80482f6:	68 10 00 00 00       	push   0x10
 80482fb:	e9 c0 ff ff ff       	jmp    80482c0 <.plt>

Disassembly of section .text:

08048300 <_start>:
 8048300:	31 ed                	xor    ebp,ebp
 8048302:	5e                   	pop    esi
 8048303:	89 e1                	mov    ecx,esp
 8048305:	83 e4 f0             	and    esp,0xfffffff0
 8048308:	50                   	push   eax
 8048309:	54                   	push   esp
 804830a:	52                   	push   edx
 804830b:	68 a0 84 04 08       	push   0x80484a0
 8048310:	68 40 84 04 08       	push   0x8048440
 8048315:	51                   	push   ecx
 8048316:	56                   	push   esi
 8048317:	68 fb 83 04 08       	push   0x80483fb
 804831c:	e8 cf ff ff ff       	call   80482f0 <__libc_start_main@plt>
 8048321:	f4                   	hlt    
 8048322:	66 90                	xchg   ax,ax
 8048324:	66 90                	xchg   ax,ax
 8048326:	66 90                	xchg   ax,ax
 8048328:	66 90                	xchg   ax,ax
 804832a:	66 90                	xchg   ax,ax
 804832c:	66 90                	xchg   ax,ax
 804832e:	66 90                	xchg   ax,ax

08048330 <__x86.get_pc_thunk.bx>:
 8048330:	8b 1c 24             	mov    ebx,DWORD PTR [esp]
 8048333:	c3                   	ret    
 8048334:	66 90                	xchg   ax,ax
 8048336:	66 90                	xchg   ax,ax
 8048338:	66 90                	xchg   ax,ax
 804833a:	66 90                	xchg   ax,ax
 804833c:	66 90                	xchg   ax,ax
 804833e:	66 90                	xchg   ax,ax

08048340 <deregister_tm_clones>:
 8048340:	b8 db 96 04 08       	mov    eax,0x80496db
 8048345:	2d d8 96 04 08       	sub    eax,0x80496d8
 804834a:	83 f8 06             	cmp    eax,0x6
 804834d:	76 1a                	jbe    8048369 <deregister_tm_clones+0x29>
 804834f:	b8 00 00 00 00       	mov    eax,0x0
 8048354:	85 c0                	test   eax,eax
 8048356:	74 11                	je     8048369 <deregister_tm_clones+0x29>
 8048358:	55                   	push   ebp
 8048359:	89 e5                	mov    ebp,esp
 804835b:	83 ec 14             	sub    esp,0x14
 804835e:	68 d8 96 04 08       	push   0x80496d8
 8048363:	ff d0                	call   eax
 8048365:	83 c4 10             	add    esp,0x10
 8048368:	c9                   	leave  
 8048369:	f3 c3                	repz ret 
 804836b:	90                   	nop
 804836c:	8d 74 26 00          	lea    esi,[esi+eiz*1+0x0]

08048370 <register_tm_clones>:
 8048370:	b8 d8 96 04 08       	mov    eax,0x80496d8
 8048375:	2d d8 96 04 08       	sub    eax,0x80496d8
 804837a:	c1 f8 02             	sar    eax,0x2
 804837d:	89 c2                	mov    edx,eax
 804837f:	c1 ea 1f             	shr    edx,0x1f
 8048382:	01 d0                	add    eax,edx
 8048384:	d1 f8                	sar    eax,1
 8048386:	74 1b                	je     80483a3 <register_tm_clones+0x33>
 8048388:	ba 00 00 00 00       	mov    edx,0x0
 804838d:	85 d2                	test   edx,edx
 804838f:	74 12                	je     80483a3 <register_tm_clones+0x33>
 8048391:	55                   	push   ebp
 8048392:	89 e5                	mov    ebp,esp
 8048394:	83 ec 10             	sub    esp,0x10
 8048397:	50                   	push   eax
 8048398:	68 d8 96 04 08       	push   0x80496d8
 804839d:	ff d2                	call   edx
 804839f:	83 c4 10             	add    esp,0x10
 80483a2:	c9                   	leave  
 80483a3:	f3 c3                	repz ret 
 80483a5:	8d 74 26 00          	lea    esi,[esi+eiz*1+0x0]
 80483a9:	8d bc 27 00 00 00 00 	lea    edi,[edi+eiz*1+0x0]

080483b0 <__do_global_dtors_aux>:
 80483b0:	80 3d d8 96 04 08 00 	cmp    BYTE PTR ds:0x80496d8,0x0
 80483b7:	75 13                	jne    80483cc <__do_global_dtors_aux+0x1c>
 80483b9:	55                   	push   ebp
 80483ba:	89 e5                	mov    ebp,esp
 80483bc:	83 ec 08             	sub    esp,0x8
 80483bf:	e8 7c ff ff ff       	call   8048340 <deregister_tm_clones>
 80483c4:	c6 05 d8 96 04 08 01 	mov    BYTE PTR ds:0x80496d8,0x1
 80483cb:	c9                   	leave  
 80483cc:	f3 c3                	repz ret 
 80483ce:	66 90                	xchg   ax,ax

080483d0 <frame_dummy>:
 80483d0:	b8 c8 95 04 08       	mov    eax,0x80495c8
 80483d5:	8b 10                	mov    edx,DWORD PTR [eax]
 80483d7:	85 d2                	test   edx,edx
 80483d9:	75 05                	jne    80483e0 <frame_dummy+0x10>
 80483db:	eb 93                	jmp    8048370 <register_tm_clones>
 80483dd:	8d 76 00             	lea    esi,[esi+0x0]
 80483e0:	ba 00 00 00 00       	mov    edx,0x0
 80483e5:	85 d2                	test   edx,edx
 80483e7:	74 f2                	je     80483db <frame_dummy+0xb>
 80483e9:	55                   	push   ebp
 80483ea:	89 e5                	mov    ebp,esp
 80483ec:	83 ec 14             	sub    esp,0x14
 80483ef:	50                   	push   eax
 80483f0:	ff d2                	call   edx
 80483f2:	83 c4 10             	add    esp,0x10
 80483f5:	c9                   	leave  
 80483f6:	e9 75 ff ff ff       	jmp    8048370 <register_tm_clones>

080483fb <main>:
 80483fb:	8d 4c 24 04          	lea    ecx,[esp+0x4]
 80483ff:	83 e4 f0             	and    esp,0xfffffff0
 8048402:	ff 71 fc             	push   DWORD PTR [ecx-0x4]
 8048405:	55                   	push   ebp
 8048406:	89 e5                	mov    ebp,esp
 8048408:	51                   	push   ecx
 8048409:	83 ec 14             	sub    esp,0x14
 804840c:	c7 45 f4 0a 00 00 00 	mov    DWORD PTR [ebp-0xc],0xa
 8048413:	83 7d f4 0a          	cmp    DWORD PTR [ebp-0xc],0xa
 8048417:	75 10                	jne    8048429 <main+0x2e>
 8048419:	83 ec 0c             	sub    esp,0xc
 804841c:	68 c0 84 04 08       	push   0x80484c0
 8048421:	e8 aa fe ff ff       	call   80482d0 <puts@plt>
 8048426:	83 c4 10             	add    esp,0x10
 8048429:	b8 00 00 00 00       	mov    eax,0x0
 804842e:	8b 4d fc             	mov    ecx,DWORD PTR [ebp-0x4]
 8048431:	c9                   	leave  
 8048432:	8d 61 fc             	lea    esp,[ecx-0x4]
 8048435:	c3                   	ret    
 8048436:	66 90                	xchg   ax,ax
 8048438:	66 90                	xchg   ax,ax
 804843a:	66 90                	xchg   ax,ax
 804843c:	66 90                	xchg   ax,ax
 804843e:	66 90                	xchg   ax,ax

08048440 <__libc_csu_init>:
 8048440:	55                   	push   ebp
 8048441:	57                   	push   edi
 8048442:	56                   	push   esi
 8048443:	53                   	push   ebx
 8048444:	e8 e7 fe ff ff       	call   8048330 <__x86.get_pc_thunk.bx>
 8048449:	81 c3 6f 12 00 00    	add    ebx,0x126f
 804844f:	83 ec 0c             	sub    esp,0xc
 8048452:	8b 6c 24 20          	mov    ebp,DWORD PTR [esp+0x20]
 8048456:	8d b3 0c ff ff ff    	lea    esi,[ebx-0xf4]
 804845c:	e8 2f fe ff ff       	call   8048290 <_init>
 8048461:	8d 83 08 ff ff ff    	lea    eax,[ebx-0xf8]
 8048467:	29 c6                	sub    esi,eax
 8048469:	c1 fe 02             	sar    esi,0x2
 804846c:	85 f6                	test   esi,esi
 804846e:	74 25                	je     8048495 <__libc_csu_init+0x55>
 8048470:	31 ff                	xor    edi,edi
 8048472:	8d b6 00 00 00 00    	lea    esi,[esi+0x0]
 8048478:	83 ec 04             	sub    esp,0x4
 804847b:	ff 74 24 2c          	push   DWORD PTR [esp+0x2c]
 804847f:	ff 74 24 2c          	push   DWORD PTR [esp+0x2c]
 8048483:	55                   	push   ebp
 8048484:	ff 94 bb 08 ff ff ff 	call   DWORD PTR [ebx+edi*4-0xf8]
 804848b:	83 c7 01             	add    edi,0x1
 804848e:	83 c4 10             	add    esp,0x10
 8048491:	39 f7                	cmp    edi,esi
 8048493:	75 e3                	jne    8048478 <__libc_csu_init+0x38>
 8048495:	83 c4 0c             	add    esp,0xc
 8048498:	5b                   	pop    ebx
 8048499:	5e                   	pop    esi
 804849a:	5f                   	pop    edi
 804849b:	5d                   	pop    ebp
 804849c:	c3                   	ret    
 804849d:	8d 76 00             	lea    esi,[esi+0x0]

080484a0 <__libc_csu_fini>:
 80484a0:	f3 c3                	repz ret 

Disassembly of section .fini:

080484a4 <_fini>:
 80484a4:	53                   	push   ebx
 80484a5:	83 ec 08             	sub    esp,0x8
 80484a8:	e8 83 fe ff ff       	call   8048330 <__x86.get_pc_thunk.bx>
 80484ad:	81 c3 0b 12 00 00    	add    ebx,0x120b
 80484b3:	83 c4 08             	add    esp,0x8
 80484b6:	5b                   	pop    ebx
 80484b7:	c3                   	ret    
